target datalayout = "e-m:e-p270:32:32-p271:32:32-p272:64:64-i64:64-i128:128-f80:128-n8:16:32:64-S128"
target triple = "x86_64-pc-linux-gnu"

%struct.evp_test_st = type { %struct.stanza_st, ptr, i32, ptr, ptr, ptr, ptr, ptr, ptr, i32 }
%struct.stanza_st = type { ptr, ptr, i32, i32, i32, i32, i32, i32, [150 x %struct.pair_st], ptr, [32768 x i8] }
%struct.pair_st = type { ptr, ptr }
%struct.pkey_data_st = type { ptr, ptr, ptr, ptr, ptr, ptr, i64, ptr, i64, ptr, ptr, ptr, i32 }

; Function Attrs: nounwind uwtable
define internal i32 @pkey_test_init(ptr noundef %0, ptr noundef %1, i32 noundef %2, ptr noundef %3, ptr noundef %4) #0 {
  %6 = alloca i32, align 4
  %7 = alloca ptr, align 8
  %8 = alloca ptr, align 8
  %9 = alloca i32, align 4
  %10 = alloca ptr, align 8
  %11 = alloca ptr, align 8
  %12 = alloca ptr, align 8
  %13 = alloca i32, align 4
  %14 = alloca i32, align 4
  store ptr %0, ptr %7, align 8, !tbaa !15
  store ptr %1, ptr %8, align 8, !tbaa !4
  store i32 %2, ptr %9, align 4, !tbaa !9
  store ptr %3, ptr %10, align 8, !tbaa !97
  store ptr %4, ptr %11, align 8, !tbaa !97
  call void @llvm.lifetime.start.p0(i64 8, ptr %12) #10
  store ptr null, ptr %12, align 8, !tbaa !346
  call void @llvm.lifetime.start.p0(i64 4, ptr %13) #10
  store i32 0, ptr %13, align 4, !tbaa !9
  %15 = load ptr, ptr %7, align 8, !tbaa !15
  %16 = load ptr, ptr %8, align 8, !tbaa !4
  %17 = load i32, ptr %9, align 4, !tbaa !9
  %18 = call i32 @pkey_test_init_keyctx(ptr noundef %15, ptr noundef %16, i32 noundef %17)
  store i32 %18, ptr %13, align 4, !tbaa !9
  %19 = load ptr, ptr %7, align 8, !tbaa !15
  %20 = getelementptr inbounds nuw %struct.evp_test_st, ptr %19, i32 0, i32 2
  %21 = load i32, ptr %20, align 8, !tbaa !24
  %22 = icmp ne i32 %21, 0
  br i1 %22, label %26, label %23

23:                                               ; preds = %5
  %24 = load i32, ptr %13, align 4, !tbaa !9
  %25 = icmp ne i32 %24, 0
  br i1 %25, label %28, label %26

26:                                               ; preds = %23, %5
  %27 = load i32, ptr %13, align 4, !tbaa !9
  store i32 %27, ptr %6, align 4
  store i32 1, ptr %14, align 4
  br label %44

28:                                               ; preds = %23
  %29 = load ptr, ptr %7, align 8, !tbaa !15
  %30 = getelementptr inbounds nuw %struct.evp_test_st, ptr %29, i32 0, i32 8
  %31 = load ptr, ptr %30, align 8, !tbaa !66
  store ptr %31, ptr %12, align 8, !tbaa !346
  %32 = load ptr, ptr %10, align 8, !tbaa !97
  %33 = load ptr, ptr %12, align 8, !tbaa !346
  %34 = getelementptr inbounds nuw %struct.pkey_data_st, ptr %33, i32 0, i32 2
  store ptr %32, ptr %34, align 8, !tbaa !359
  %35 = load ptr, ptr %11, align 8, !tbaa !97
  %36 = load ptr, ptr %12, align 8, !tbaa !346
  %37 = getelementptr inbounds nuw %struct.pkey_data_st, ptr %36, i32 0, i32 4
  store ptr %35, ptr %37, align 8, !tbaa !356
  %38 = call ptr @OPENSSL_sk_new_null()
  %39 = load ptr, ptr %12, align 8, !tbaa !346
  %40 = getelementptr inbounds nuw %struct.pkey_data_st, ptr %39, i32 0, i32 9
  store ptr %38, ptr %40, align 8, !tbaa !348
  %41 = call ptr @OPENSSL_sk_new_null()
  %42 = load ptr, ptr %12, align 8, !tbaa !346
  %43 = getelementptr inbounds nuw %struct.pkey_data_st, ptr %42, i32 0, i32 10
  store ptr %41, ptr %43, align 8, !tbaa !351
  store i32 1, ptr %6, align 4
  store i32 1, ptr %14, align 4
  br label %44

44:                                               ; preds = %28, %26
  call void @llvm.lifetime.end.p0(i64 4, ptr %13) #10
  call void @llvm.lifetime.end.p0(i64 8, ptr %12) #10
  %45 = load i32, ptr %6, align 4
  ret i32 %45
}

; Function Attrs: nounwind uwtable
define internal i32 @sign_test_init(ptr noundef %0, ptr noundef %1) #0 {
  %3 = alloca i32, align 4
  %4 = alloca ptr, align 8
  %5 = alloca ptr, align 8
  store ptr %0, ptr %4, align 8, !tbaa !15
  store ptr %1, ptr %5, align 8, !tbaa !4
  %6 = load ptr, ptr %5, align 8, !tbaa !4
  %7 = call ptr @strchr(ptr noundef %6, i32 noundef 58) #11
  %8 = icmp ne ptr %7, null
  br i1 %8, label %9, label %13

9:                                                ; preds = %2
  %10 = load ptr, ptr %4, align 8, !tbaa !15
  %11 = load ptr, ptr %5, align 8, !tbaa !4
  %12 = call i32 @pkey_test_init_ex2(ptr noundef %10, ptr noundef %11, i32 noundef 0, ptr noundef @EVP_PKEY_sign_init_ex2, ptr noundef @EVP_PKEY_sign)
  store i32 %12, ptr %3, align 4
  br label %17

13:                                               ; preds = %2
  %14 = load ptr, ptr %4, align 8, !tbaa !15
  %15 = load ptr, ptr %5, align 8, !tbaa !4
  %16 = call i32 @pkey_test_init(ptr noundef %14, ptr noundef %15, i32 noundef 0, ptr noundef @EVP_PKEY_sign_init_ex, ptr noundef @EVP_PKEY_sign)
  store i32 %16, ptr %3, align 4
  br label %17

17:                                               ; preds = %13, %9
  %18 = load i32, ptr %3, align 4
  ret i32 %18
}