; Function Attrs: nounwind uwtable
define internal range(i32 0, 2) i32 @sign_test_init(ptr noundef captures(none) %0, ptr noundef %1) #1 {
  %3 = tail call ptr @strchr(ptr noundef nonnull dereferenceable(1) %1, i32 noundef 58) #11
  %.not = icmp eq ptr %3, null
  br i1 %.not, label %6, label %4

4:                                                ; preds = %2
  %5 = tail call fastcc i32 @pkey_test_init_ex2(ptr noundef %0, ptr noundef nonnull %1, i32 noundef 0, ptr noundef nonnull @EVP_PKEY_sign_init_ex2, ptr noundef nonnull @EVP_PKEY_sign)
  br label %pkey_test_init.exit

6:                                                ; preds = %2
  %7 = tail call fastcc i32 @pkey_test_init_keyctx(ptr noundef %0, ptr noundef nonnull %1, i32 noundef 0)
  %8 = getelementptr inbounds nuw i8, ptr %0, i64 35224
  %9 = load i32, ptr %8, align 8, !tbaa !26
  %10 = icmp eq i32 %9, 0
  %11 = icmp ne i32 %7, 0
  %or.cond.i = select i1 %10, i1 %11, i1 false
  br i1 %or.cond.i, label %12, label %pkey_test_init.exit

12:                                               ; preds = %6
  %13 = getelementptr inbounds nuw i8, ptr %0, i64 35272
  %14 = load ptr, ptr %13, align 8, !tbaa !20
  %15 = getelementptr inbounds nuw i8, ptr %14, i64 16
  store ptr @EVP_PKEY_sign_init_ex, ptr %15, align 8, !tbaa !284
  %16 = getelementptr inbounds nuw i8, ptr %14, i64 32
  store ptr @EVP_PKEY_sign, ptr %16, align 8, !tbaa !287
  %17 = tail call ptr @OPENSSL_sk_new_null() #10
  %18 = getelementptr inbounds nuw i8, ptr %14, i64 72
  store ptr %17, ptr %18, align 8, !tbaa !288
  %19 = tail call ptr @OPENSSL_sk_new_null() #10
  %20 = getelementptr inbounds nuw i8, ptr %14, i64 80
  store ptr %19, ptr %20, align 8, !tbaa !289
  br label %pkey_test_init.exit

pkey_test_init.exit:                              ; preds = %12, %6, %4
  %.0 = phi i32 [ %5, %4 ], [ 1, %12 ], [ %7, %6 ]
  ret i32 %.0
}